; Function Attrs: mustprogress uwtable
define void @_ZN17LteRlcGraphDialog27on_actionDragZoom_triggeredEv(ptr nocapture noundef nonnull readonly align 8 dereferenceable(268) %0) local_unnamed_addr #0 align 2 {
  %2 = getelementptr inbounds i8, ptr %0, i64 144
  %3 = load i8, ptr %2, align 8
  %4 = and i8 %3, 1
  %.not = icmp eq i8 %4, 0
  %5 = getelementptr inbounds i8, ptr %0, i64 136
  %6 = load ptr, ptr %5, align 8
  %. = select i1 %.not, i64 208, i64 216
  %7 = getelementptr inbounds i8, ptr %6, i64 %.
  %8 = load ptr, ptr %7, align 8
  tail call void @_ZN15QAbstractButton6toggleEv(ptr noundef nonnull align 8 dereferenceable(40) %8)
  ret void
}